target datalayout = "e-m:e-p270:32:32-p271:32:32-p272:64:64-i64:64-i128:128-f80:128-n8:16:32:64-S128"
target triple = "x86_64-pc-linux-gnu"

%struct.nghttp2_buf = type { ptr, ptr, ptr, ptr, ptr }
%struct.nghttp2_bufs = type { ptr, ptr, ptr, i64, i64, i64, i64, i64 }
%struct.nghttp2_buf_chain = type { ptr, %struct.nghttp2_buf }

; Function Attrs: nounwind uwtable
define dso_local i64 @nghttp2_bufs_len(ptr noundef %0) #0 {
  %2 = alloca ptr, align 8
  %3 = alloca ptr, align 8
  %4 = alloca i64, align 8
  store ptr %0, ptr %2, align 8, !tbaa !4
  call void @llvm.lifetime.start.p0(i64 8, ptr %3) #3
  call void @llvm.lifetime.start.p0(i64 8, ptr %4) #3
  store i64 0, ptr %4, align 8, !tbaa !15
  %5 = load ptr, ptr %2, align 8, !tbaa !4
  %6 = getelementptr inbounds nuw %struct.nghttp2_bufs, ptr %5, i32 0, i32 0
  %7 = load ptr, ptr %6, align 8, !tbaa !25
  store ptr %7, ptr %3, align 8, !tbaa !24
  br label %8

8:                                                ; preds = %25, %1
  %9 = load ptr, ptr %3, align 8, !tbaa !24
  %10 = icmp ne ptr %9, null
  br i1 %10, label %11, label %29

11:                                               ; preds = %8
  %12 = load ptr, ptr %3, align 8, !tbaa !24
  %13 = getelementptr inbounds nuw %struct.nghttp2_buf_chain, ptr %12, i32 0, i32 1
  %14 = getelementptr inbounds nuw %struct.nghttp2_buf, ptr %13, i32 0, i32 3
  %15 = load ptr, ptr %14, align 8, !tbaa !29
  %16 = load ptr, ptr %3, align 8, !tbaa !24
  %17 = getelementptr inbounds nuw %struct.nghttp2_buf_chain, ptr %16, i32 0, i32 1
  %18 = getelementptr inbounds nuw %struct.nghttp2_buf, ptr %17, i32 0, i32 2
  %19 = load ptr, ptr %18, align 8, !tbaa !27
  %20 = ptrtoint ptr %15 to i64
  %21 = ptrtoint ptr %19 to i64
  %22 = sub i64 %20, %21
  %23 = load i64, ptr %4, align 8, !tbaa !15
  %24 = add i64 %23, %22
  store i64 %24, ptr %4, align 8, !tbaa !15
  br label %25

25:                                               ; preds = %11
  %26 = load ptr, ptr %3, align 8, !tbaa !24
  %27 = getelementptr inbounds nuw %struct.nghttp2_buf_chain, ptr %26, i32 0, i32 0
  %28 = load ptr, ptr %27, align 8, !tbaa !36
  store ptr %28, ptr %3, align 8, !tbaa !24
  br label %8, !llvm.loop !44

29:                                               ; preds = %8
  %30 = load i64, ptr %4, align 8, !tbaa !15
  call void @llvm.lifetime.end.p0(i64 8, ptr %4) #3
  call void @llvm.lifetime.end.p0(i64 8, ptr %3) #3
  ret i64 %30
}